; Function Attrs: mustprogress uwtable
define void @_ZN7xgboost3obj6detail20UpdateTreeLeafDeviceEPKNS_7ContextENS_6common4SpanIKiLm18446744073709551615EEEiRKNS_8MetaInfoEfRKNS_16HostDeviceVectorIfEEfPNS_7RegTreeE(ptr noundef readnone captures(none) %0, i64 %1, ptr readnone captures(none) %2, i32 noundef %3, ptr noundef nonnull readnone align 8 captures(none) dereferenceable(233) %4, float noundef %5, ptr noundef nonnull readnone align 8 captures(none) dereferenceable(8) %6, float noundef %7, ptr noundef readnone captures(none) %8) local_unnamed_addr #3 personality ptr @__gxx_personality_v0 {
  %10 = alloca %"class.dmlc::LogMessageFatal", align 1
  call void @llvm.lifetime.start.p0(i64 1, ptr nonnull %10) #12
  %11 = call noundef nonnull align 8 dereferenceable(376) ptr @_ZN4dmlc15LogMessageFatal8GetEntryEv(ptr noundef nonnull align 1 dereferenceable(1) %10)
  call void @_ZN4dmlc15LogMessageFatal5Entry4InitEPKci(ptr noundef nonnull align 8 dereferenceable(376) %11, ptr noundef nonnull @.str.34, i32 noundef 168)
  %12 = invoke noundef nonnull align 8 dereferenceable(376) ptr @_ZN4dmlc15LogMessageFatal8GetEntryEv(ptr noundef nonnull align 1 dereferenceable(1) %10)
          to label %_ZN4dmlc15LogMessageFatal6streamB5cxx11Ev.exit.i unwind label %14

_ZN4dmlc15LogMessageFatal6streamB5cxx11Ev.exit.i: ; preds = %9
  %13 = invoke noundef nonnull align 8 dereferenceable(8) ptr @_ZSt16__ostream_insertIcSt11char_traitsIcEERSt13basic_ostreamIT_T0_ES6_PKS3_l(ptr noundef nonnull align 8 dereferenceable(8) %12, ptr noundef nonnull @.str.35, i64 noundef 46)
          to label %_ZN7xgboost6common16AssertGPUSupportEv.exit unwind label %14

14:                                               ; preds = %_ZN4dmlc15LogMessageFatal6streamB5cxx11Ev.exit.i, %9
  %15 = landingpad { ptr, i32 }
          cleanup
  invoke void @_ZN4dmlc15LogMessageFatalD2Ev(ptr noundef nonnull align 1 dereferenceable(1) %10)
          to label %16 unwind label %17

16:                                               ; preds = %14
  call void @llvm.lifetime.end.p0(i64 1, ptr nonnull %10) #12
  resume { ptr, i32 } %15

17:                                               ; preds = %14
  %18 = landingpad { ptr, i32 }
          catch ptr null
  %19 = extractvalue { ptr, i32 } %18, 0
  call void @__clang_call_terminate(ptr %19) #35
  unreachable

_ZN7xgboost6common16AssertGPUSupportEv.exit:      ; preds = %_ZN4dmlc15LogMessageFatal6streamB5cxx11Ev.exit.i
  call void @_ZN4dmlc15LogMessageFatalD2Ev(ptr noundef nonnull align 1 dereferenceable(1) %10)
  call void @llvm.lifetime.end.p0(i64 1, ptr nonnull %10) #12
  ret void
}